(lp0
(ishared.common.stockinfo
StockIno
p1
(dp2
S'freecashflow'
p3
F136800000.0
sS'price'
p4
V9.01
p5
sS'shares'
p6
F112110000.0
sS'leveredcashflow'
p7
F104340000.0
sS'FCFratio'
p8
F0.13543064718326528
sS'LCFratio'
p9
F0.10329556818056945
sS'symbol'
p10
S'ACCO'
p11
sS'profit_margin'
p12
F0.0565
sba(ishared.common.stockinfo
StockIno
p13
(dp14
g3
F43810000.0
sg4
V17.37
p15
sg6
F17120000.0
sg7
F31250000.0
sg8
F0.14732270161789313
sg9
F0.10508638268795162
sg10
S'ADMS'
p16
sg12
F0.47880000000000006
sba(ishared.common.stockinfo
StockIno
p17
(dp18
g3
F97280000.0
sg4
V23.70
p19
sg6
F40100000.0
sg7
F95830000.0
sg8
F0.10236013342171996
sg9
F0.10083441186064375
sg10
S'AEIS'
p20
sg12
F0.1235
sba(ishared.common.stockinfo
StockIno
p21
(dp22
g3
F1680000000.0
sg4
V38.82
p23
sg6
F212320000.0
sg7
F1840000000.0
sg8
F0.20382753162529743
sg9
F0.2232396774943734
sg10
S'AER'
p24
sg12
F0.231
sba(ishared.common.stockinfo
StockIno
p25
(dp26
g3
F1050000000.0
sg4
V25.55
p27
sg6
F87870000.0
sg7
F1030000000.0
sg8
F0.4676896598493104
sg9
F0.45878128537599017
sg10
S'AFA'
p28
sg12
F0.0883
sba(ishared.common.stockinfo
StockIno
p29
(dp30
g3
F1050000000.0
sg4
V60.72
p31
sg6
F87870000.0
sg7
F1030000000.0
sg8
F0.19679629132328527
sg9
F0.19304779053617507
sg10
S'AFG'
p32
sg12
F0.0883
sba(ishared.common.stockinfo
StockIno
p33
(dp34
g3
F7960000000.0
sg4
V24.56
p35
sg6
F450590000.0
sg7
F2520000000.0
sg8
F0.7192885650540121
sg9
F0.2277144703437325
sg10
S'AFSD'
p36
sg12
F0.1278
sba(ishared.common.stockinfo
StockIno
p37
(dp38
g3
F1230000000.0
sg4
V56.25
p39
sg6
F74820000.0
sg7
F561220000.0
sg8
F0.2922569722890493
sg9
F0.1333499658439514
sg10
S'AFSI'
p40
sg12
F0.11560000000000001
sba(ishared.common.stockinfo
StockIno
p41
(dp42
g3
F1050000000.0
sg4
V25.95
p43
sg6
F87870000.0
sg7
F1030000000.0
sg8
F0.4604805706801496
sg9
F0.45170951219100386
sg10
S'AFQ'
p44
sg12
F0.0883
sba(ishared.common.stockinfo
StockIno
p45
(dp46
g3
F1050000000.0
sg4
V25.12
p47
sg6
F87870000.0
sg7
F1030000000.0
sg8
F0.4756954939948201
sg9
F0.46663462744253775
sg10
S'AFGE'
p48
sg12
F0.0883
sba(ishared.common.stockinfo
StockIno
p49
(dp50
g3
F1050000000.0
sg4
V26.55
p51
sg6
F87870000.0
sg7
F1030000000.0
sg8
F0.4500742300998072
sg9
F0.4415013876217156
sg10
S'AFW'
p52
sg12
F0.0883
sba(ishared.common.stockinfo
StockIno
p53
(dp54
g3
F818190000.0
sg4
V68.43
p55
sg6
F70260000.0
sg7
F1070000000.0000001
sg8
F0.170176458629955
sg9
F0.22255076538952062
sg10
S'AIZ'
p56
sg12
F0.052199999999999996
sba(ishared.common.stockinfo
StockIno
p57
(dp58
g3
F545880000.0
sg4
V60.13
p59
sg6
F78250000.0
sg7
F546900000.0
sg8
F0.11601700043941002
sg9
F0.11623378313972549
sg10
S'ALB'
p60
sg12
F0.11359999999999999
sba(ishared.common.stockinfo
StockIno
p61
(dp62
g3
F3740000000.0
sg4
V70.25
p63
sg6
F419430000.0
sg7
F4640000000.0
sg8
F0.12693043931931683
sg9
F0.15747519744428615
sg10
S'ALL'
p64
sg12
F0.08070000000000001
sba(ishared.common.stockinfo
StockIno
p65
(dp66
g3
F133120000.0
sg4
V42.36
p67
sg6
F18680000.0
sg7
F79560000.0
sg8
F0.1682327273315499
sg9
F0.10054534094424662
sg10
S'AMSF'
p68
sg12
F0.1379
sba(ishared.common.stockinfo
StockIno
p69
(dp70
g3
F26410000.0
sg4
V5.79
p71
sg6
F20610000.0
sg7
F15530000.0
sg8
F0.22131550742089917
sg9
F0.13014122795329663
sg10
S'AMTX'
p72
sg12
F0.06420000000000001
sba(ishared.common.stockinfo
StockIno
p73
(dp74
g3
F320520000.0
sg4
V50.53
p75
sg6
F34120000.0
sg7
F246100000.0
sg8
F0.18590745831582645
sg9
F0.14274249810160017
sg10
S'APAM'
p76
sg12
F0.0712
sba(ishared.common.stockinfo
StockIno
p77
(dp78
g3
F176530000.0
sg4
V33.79
p79
sg6
F20270000.0
sg7
F86800000.0
sg8
F0.25773688820339447
sg9
F0.12672951847309033
sg10
S'ASPS'
p80
sg12
F0.1641
sba(ishared.common.stockinfo
StockIno
p81
(dp82
g3
F944080000.0
sg4
V51.09
p83
sg6
F102210000.0
sg7
F684020000.0
sg8
F0.1807921237385049
sg9
F0.13099041233752662
sg10
S'AXS'
p84
sg12
F0.1865
sba(ishared.common.stockinfo
StockIno
p85
(dp86
g3
F19030000.0
sg4
V5.11
p87
sg6
F23110000.0
sg7
F14000000.0
sg8
F0.16114541108168962
sg9
F0.11855153731706014
sg10
S'BBGI'
p88
sg12
F0.09369999999999999
sba(ishared.common.stockinfo
StockIno
p89
(dp90
g3
F706000000.0
sg4
V22.87
p91
sg6
F244360000.0
sg7
F1580000000.0
sg8
F0.12633055962004347
sg9
F0.28272278215250524
sg10
S'BPY'
p92
sg12
F0.1292
sba(ishared.common.stockinfo
StockIno
p93
(dp94
g3
F139800000.0
sg4
V3.19
p95
sg6
F209240000.0
sg7
F329380000.0
sg8
F0.209445858395423
sg9
F0.4934712220192019
sg10
S'CBB'
p96
sg12
F0.051500000000000004
sba(ishared.common.stockinfo
StockIno
p97
(dp98
g3
F458050000.0
sg4
V19.42
p99
sg6
F170260000.0
sg7
F390440000.0
sg8
F0.1385322962167391
sg9
F0.11808437885572232
sg10
S'CBL'
p100
sg12
F0.141
sba(ishared.common.stockinfo
StockIno
p101
(dp102
g3
F315000000.0
sg4
V43.86
p103
sg6
F64050000.0
sg7
F331380000.0
sg8
F0.11213025049897962
sg9
F0.11796102352492654
sg10
S'CBT'
p104
sg12
F0.0546
sba(ishared.common.stockinfo
StockIno
p105
(dp106
g3
F14780000000.0
sg4
V25.34
p107
sg6
F2580000000.0
sg7
F12070000000.0
sg8
F0.22607269812717584
sg9
F0.18462093818640138
sg10
S'CCV'
p108
sg12
F0.1231
sba(ishared.common.stockinfo
StockIno
p109
(dp110
g3
F421450000.0
sg4
V8.65
p111
sg6
F99060000.0
sg7
F238470000.0
sg8
F0.4918488123622164
sg9
F0.2783039181018335
sg10
S'CEL'
p112
sg12
F0.0862
sba(ishared.common.stockinfo
StockIno
p113
(dp114
g3
F93980000.0
sg4
V13.32
p115
sg6
F20530000.0
sg7
F50640000.0
sg8
F0.3436705092818098
sg9
F0.185182747286985
sg10
S'CLMS'
p116
sg12
F0.0762
sba(ishared.common.stockinfo
StockIno
p117
(dp118
g3
F97040000.0
sg4
V39.05
p119
sg6
F21310000.0
sg7
F86370000.0
sg8
F0.11661282056058032
sg9
F0.10379069777223127
sg10
S'COR'
p120
sg12
F0.08130000000000001
sba(ishared.common.stockinfo
StockIno
p121
(dp122
g3
F124880000.0
sg4
V8.00
p123
sg6
F92190000.0
sg7
F402550000.0
sg8
F0.16932422171602127
sg9
F0.5458157066926999
sg10
S'CPLP'
p124
sg12
F0.1681
sba(ishared.common.stockinfo
StockIno
p125
(dp126
g3
F34870000.0
sg4
V27.64
p127
sg6
F9320000.0
sg7
F26050000.0
sg8
F0.13536238455184063
sg9
F0.10112389210138942
sg10
S'CSS'
p128
sg12
F0.0571
sba(ishared.common.stockinfo
StockIno
p129
(dp130
g3
F587910000.0
sg4
V22.62
p131
sg6
F28890000.0
sg7
F122950000.0
sg8
F0.8996440353191882
sg9
F0.18814314119932338
sg10
S'CSH'
p132
sg12
F0.0547
sba(ishared.common.stockinfo
StockIno
p133
(dp134
g3
F177030000.0
sg4
V4.87
p135
sg6
F155760000.0
sg7
F522490000.0
sg8
F0.23337910479872684
sg9
F0.6887999122537807
sg10
S'CTCM'
p136
sg12
F0.1711
sba(ishared.common.stockinfo
StockIno
p137
(dp138
g3
F184610000.0
sg4
V5.47
p139
sg6
F109670000.0
sg7
F176110000.0
sg8
F0.30773723863963504
sg9
F0.2935680900104335
sg10
S'DAC'
p140
sg12
F0.07740000000000001
sba(ishared.common.stockinfo
StockIno
p141
(dp142
g3
F56220000.0
sg4
V10.01
p143
sg6
F53150000.0
sg7
F54360000.0
sg8
F0.10567043492725524
sg9
F0.10217440132774093
sg10
S'DHX'
p144
sg12
F0.0602
sba(ishared.common.stockinfo
StockIno
p145
(dp146
g3
F176080000.0
sg4
V23.51
p147
sg6
F31490000.0
sg7
F151110000.0
sg8
F0.23783991434089044
sg9
F0.2041117074968875
sg10
S'EIG'
p148
sg12
F0.1109
sba(ishared.common.stockinfo
StockIno
p149
(dp150
g3
F47630000.0
sg4
V14.04
p151
sg6
F24010000.0
sg7
F51000000.0
sg8
F0.14129321709496637
sg9
F0.15129023875379563
sg10
S'ELRC'
p152
sg12
F0.0802
sba(ishared.common.stockinfo
StockIno
p153
(dp154
g3
F200430000.0
sg4
V58.03
p155
sg6
F24650000.0
sg7
F145140000.0
sg8
F0.1401177749915323
sg9
F0.10146531887577209
sg10
S'FFG'
p156
sg12
F0.1574
sba(ishared.common.stockinfo
StockIno
p157
(dp158
g3
F180040000.0
sg4
V8.02
p159
sg6
F208540000.0
sg7
F200040000.0
sg8
F0.10764782682212662
sg9
F0.11960603908852593
sg10
S'FIG'
p160
sg12
F0.1243
sba(ishared.common.stockinfo
StockIno
p161
(dp162
g3
F75340000.0
sg4
V24.16
p163
sg6
F14010000.0
sg7
F55650000.0
sg8
F0.22258226148777366
sg9
F0.16441070947431116
sg10
S'FNHC'
p164
sg12
F0.16579999999999998
sba(ishared.common.stockinfo
StockIno
p165
(dp166
g3
F211350000.0
sg4
V5.68
p167
sg6
F268590000.0
sg7
F564310000.0
sg8
F0.1385364572108177
sg9
F0.3698959459126403
sg10
S'GAME'
p168
sg12
F0.326
sba(ishared.common.stockinfo
StockIno
p169
(dp170
g3
F96490000.0
sg4
V1.54
p171
sg6
F202630000.0
sg7
F120700000.0
sg8
F0.30921306892288486
sg9
F0.38679673975533424
sg10
S'GFA'
p172
sg12
F0.3946
sba(ishared.common.stockinfo
StockIno
p173
(dp174
g3
F29270000.0
sg4
V3.38
p175
sg6
F54180000.0
sg7
F24550000.0
sg8
F0.15983320992265534
sg9
F0.13405894443461527
sg10
S'GORO'
p176
sg12
F0.0776
sba(ishared.common.stockinfo
StockIno
p177
(dp178
g3
F72730000.0
sg4
V43.24
p179
sg6
F10990000.0
sg7
F71130000.0
sg8
F0.15304889904959432
sg9
F0.1496819495311102
sg10
S'HCI'
p180
sg12
F0.23879999999999998
sba(ishared.common.stockinfo
StockIno
p181
(dp182
g3
F72730000.0
sg4
V26.68
p183
sg6
F10990000.0
sg7
F71130000.0
sg8
F0.2480447674252046
sg9
F0.2425879871711096
sg10
S'HCJ'
p184
sg12
F0.23879999999999998
sba(ishared.common.stockinfo
StockIno
p185
(dp186
g3
F52570000.0
sg4
V4.50
p187
sg6
F54950000.0
sg7
F50000000.0
sg8
F0.21259731068648266
sg9
F0.2022040238600748
sg10
S'GSL'
p188
sg12
F0.1028
sba(ishared.common.stockinfo
StockIno
p189
(dp190
g3
F4960000000.0
sg4
V73.82
p191
sg6
F300700000.0
sg7
F2720000000.0
sg8
F0.22344683501523627
sg9
F0.12253536113738765
sg10
S'HES'
p192
sg12
F0.19870000000000002
sba(ishared.common.stockinfo
StockIno
p193
(dp194
g3
F67650000.0
sg4
V26.50
p195
sg6
F13150000.0
sg7
F50010000.0
sg8
F0.1941315732835928
sg9
F0.143511012267738
sg10
S'GEOS'
p196
sg12
F0.1558
sba(ishared.common.stockinfo
StockIno
p197
(dp198
g3
F1030000000.0
sg4
V17.36
p199
sg6
F106500000.0
sg7
F350080000.0
sg8
F0.5571060773241601
sg9
F0.18935116072780772
sg10
S'I'
p200
sg12
F0.1158
sba(ishared.common.stockinfo
StockIno
p201
(dp202
g3
F156050000.0
sg4
V2.75
p203
sg6
F164200000.0
sg7
F72070000.0
sg8
F0.3455874211050825
sg9
F0.15960580223674012
sg10
S'IO'
p204
sg12
F0.1225
sba(ishared.common.stockinfo
StockIno
p205
(dp206
g3
F325520000.0
sg4
V18.39
p207
sg6
F92300000.0
sg7
F315130000.0
sg8
F0.19177599583362054
sg9
F0.185654858586412
sg10
S'JOE'
p208
sg12
F0.5807
sba(ishared.common.stockinfo
StockIno
p209
(dp210
g3
F30050000.0
sg4
V6.82
p211
sg6
F33130000.000000004
sg7
F23480000.0
sg8
F0.1329960264947558
sg9
F0.10391835947077759
sg10
S'KCAP'
p212
sg12
F0.47880000000000006
sba(ishared.common.stockinfo
StockIno
p213
(dp214
g3
F21060000.0
sg4
V6.44
p215
sg6
F16280000.000000002
sg7
F15230000.0
sg8
F0.2008713965235704
sg9
F0.14526454743846046
sg10
S'JST'
p216
sg12
F0.0654
sba(ishared.common.stockinfo
StockIno
p217
(dp218
g3
F211420000.0
sg4
V53.96
p219
sg6
F31960000.0
sg7
F184380000.0
sg8
F0.12259347535048908
sg9
F0.10691412820510442
sg10
S'LE'
p220
sg12
F0.05480000000000001
sba(ishared.common.stockinfo
StockIno
p221
(dp222
g3
F441600000.0
sg4
V41.27
p223
sg6
F61800000.0
sg7
F525440000.00000006
sg8
F0.1731434714795533
sg9
F0.20601563780393226
sg10
S'LXK'
p224
sg12
F0.0538
sba(ishared.common.stockinfo
StockIno
p225
(dp226
g3
F446000000.0
sg4
V9.54
p227
sg6
F193200000.0
sg7
F1130000000.0
sg8
F0.24197993845245694
sg9
F0.6130881848683326
sg10
S'MBI'
p228
sg12
F0.4448
sba(ishared.common.stockinfo
StockIno
p229
(dp230
g3
F5120000000.0
sg4
V7.18
p231
sg6
F994500000.0
sg7
F1290000000.0
sg8
F0.7170356179040434
sg9
F0.18065936466722968
sg10
S'MBT'
p232
sg12
F0.17129999999999998
sba(ishared.common.stockinfo
StockIno
p233
(dp234
g3
F17100000000.000002
sg4
V54.09
p235
sg6
F1140000000.0
sg7
F6690000000.0
sg8
F0.27731558513588467
sg9
F0.10849364120228468
sg10
S'MET'
p236
sg12
F0.0784
sba(ishared.common.stockinfo
StockIno
p237
(dp238
g3
F266200000.0
sg4
V9.09
p239
sg6
F53960000.0
sg7
F450350000.0
sg8
F0.5427155020913507
sg9
F0.9181514889813667
sg10
S'MGI'
p240
sg12
F0.057
sba(ishared.common.stockinfo
StockIno
p241
(dp242
g3
F181390000.0
sg4
V3.32
p243
sg6
F87100000.0
sg7
F82350000.0
sg8
F0.6272737332798473
sg9
F0.2847786092706071
sg10
S'MNI'
p244
sg12
F0.069
sba(ishared.common.stockinfo
StockIno
p245
(dp246
g3
F164200000.0
sg4
V35.82
p247
sg6
F43360000.0
sg7
F206060000.0
sg8
F0.10572027830831073
sg9
F0.13267186691967423
sg10
S'MRH'
p248
sg12
F0.35850000000000004
sba(ishared.common.stockinfo
StockIno
p249
(dp250
g3
F527000000.0
sg4
V29.14
p251
sg6
F168400000.0
sg7
F605880000.0
sg8
F0.10739374336685703
sg9
F0.12346816172886402
sg10
S'NCR'
p252
sg12
F0.05480000000000001
sba(ishared.common.stockinfo
StockIno
p253
(dp254
g3
F294770000.0
sg4
V25.324
p255
sg6
F93410000.0
sg7
F331310000.0
sg8
F0.12461135099029857
sg9
F0.14005830544694448
sg10
S'NGHCP'
p256
sg12
F0.0605
sba(ishared.common.stockinfo
StockIno
p257
(dp258
g3
F294770000.0
sg4
V18.61
p259
sg6
F93410000.0
sg7
F331310000.0
sg8
F0.16956785881130154
sg9
F0.1905876693787438
sg10
S'NGHC'
p260
sg12
F0.0605
sba(ishared.common.stockinfo
StockIno
p261
(dp262
g3
F3400000000.0
sg4
V65.53
p263
sg6
F430570000.0
sg7
F4190000000.0000005
sg8
F0.12050220171522054
sg9
F0.1485012427019924
sg10
S'NOV'
p264
sg12
F0.1039
sba(ishared.common.stockinfo
StockIno
p265
(dp266
g3
F20140000.0
sg4
V12.16
p267
sg6
F9190000.0
sg7
F11750000.0
sg8
F0.18022306855277476
sg9
F0.10514503751216998
sg10
S'NRT'
p268
sg12
F0.9557
sba(ishared.common.stockinfo
StockIno
p269
(dp270
g3
F298830000.0
sg4
V27.80
p271
sg6
F54880000.0
sg7
F270930000.0
sg8
F0.19586881515196006
sg9
F0.17758169557648343
sg10
S'NSR'
p272
sg12
F0.1631
sba(ishared.common.stockinfo
StockIno
p273
(dp274
g3
F289430000.0
sg4
V269.25
p275
sg6
F3640000.0
sg7
F105790000.0
sg8
F0.2953156407195404
sg9
F0.10794126950115808
sg10
S'NWLI'
p276
sg12
F0.13460000000000003
sba(ishared.common.stockinfo
StockIno
p277
(dp278
g3
F32229999.999999996
sg4
V4.21
p279
sg6
F47260000.0
sg7
F31130000.0
sg8
F0.16198861506016646
sg9
F0.15645999338575806
sg10
S'ONE'
p280
sg12
F0.0779
sba(ishared.common.stockinfo
StockIno
p281
(dp282
g3
F265029999.99999997
sg4
V26.00
p283
sg6
F57980000.0
sg7
F200990000.0
sg8
F0.17580996099450735
sg9
F0.13332846870273568
sg10
S'OVTI'
p284
sg12
F0.0802
sba(ishared.common.stockinfo
StockIno
p285
(dp286
g3
F1000000000.0
sg4
V11.68
p287
sg6
F172200000.0
sg7
F897990000.0
sg8
F0.4971918603726155
sg9
F0.44647331869600493
sg10
S'OZM'
p288
sg12
F0.1313
sba(ishared.common.stockinfo
StockIno
p289
(dp290
g3
F528700000.00000006
sg4
V24.37
p291
sg6
F200990000.0
sg7
F722990000.0
sg8
F0.10793923382498324
sg9
F0.14760542209783362
sg10
S'PBI'
p292
sg12
F0.092
sba(ishared.common.stockinfo
StockIno
p293
(dp294
g3
F44470000.0
sg4
V6.65
p295
sg6
F49320000.0
sg7
F35370000.0
sg8
F0.1355883626340791
sg9
F0.10784259919872674
sg10
S'PFMT'
p296
sg12
F0.0911
sba(ishared.common.stockinfo
StockIno
p297
(dp298
g3
F74530000.0
sg4
V2.78
p299
sg6
F79060000.0
sg7
F47330000.0
sg8
F0.33910134730566166
sg9
F0.2153450525691261
sg10
S'PME'
p300
sg12
F0.39799999999999996
sba(ishared.common.stockinfo
StockIno
p301
(dp302
g3
F1080000000.0
sg4
V32.79
p303
sg6
F259029999.99999997
sg7
F889510000.0
sg8
F0.12715465775105303
sg9
F0.10472716631123997
sg10
S'PPC'
p304
sg12
F0.08070000000000001
sba(ishared.common.stockinfo
StockIno
p305
(dp306
g3
F826770000.0
sg4
V114.13
p307
sg6
F48970000.0
sg7
F15480000000.0
sg8
F0.14792949962426727
sg9
F2.7697529593280565
sg10
S'PRE'
p308
sg12
F0.1627
sba(ishared.common.stockinfo
StockIno
p309
(dp310
g3
F52410000.0
sg4
V9.46
p311
sg6
F13200000.0
sg7
F42460000.0
sg8
F0.4197097828176052
sg9
F0.34002818886539815
sg10
S'PZN'
p312
sg12
F0.0702
sba(ishared.common.stockinfo
StockIno
p313
(dp314
g3
F203770000.0
sg4
V20.19
p315
sg6
F54440000.0
sg7
F172950000.0
sg8
F0.1853897889229396
sg9
F0.1573497766806812
sg10
S'QIWI'
p316
sg12
F0.2531
sba(ishared.common.stockinfo
StockIno
p317
(dp318
g3
F136070000.0
sg4
V61.97
p319
sg6
F8000000.0
sg7
F97550000.0
sg8
F0.2744674842665806
sg9
F0.19676859770856867
sg10
S'REX'
p320
sg12
F0.1403
sba(ishared.common.stockinfo
StockIno
p321
(dp322
g3
F833770000.0
sg4
V97.22
p323
sg6
F38530000.0
sg7
F458610000.0
sg8
F0.22258281924498197
sg9
F0.12243029460635567
sg10
S'RNR'
p324
sg12
F0.4712
sba(ishared.common.stockinfo
StockIno
p325
(dp326
g3
F491670000.0
sg4
V27.94
p327
sg6
F126500000.0
sg7
F364450000.0
sg8
F0.1391094977662467
sg9
F0.10311480558282711
sg10
S'RYN'
p328
sg12
F0.0976
sba(ishared.common.stockinfo
StockIno
p329
(dp330
g3
F368330000.0
sg4
V27.36
p331
sg6
F95530000.0
sg7
F336760000.0
sg8
F0.14092278657143925
sg9
F0.12884412783590227
sg10
S'SBGI'
p332
sg12
F0.0665
sba(ishared.common.stockinfo
StockIno
p333
(dp334
g3
F608200000.0
sg4
V7.57
p335
sg6
F224580000.0
sg7
F384890000.0
sg8
F0.3577498487415758
sg9
F0.2263964802402912
sg10
S'SBGL'
p336
sg12
F0.1268
sba(ishared.common.stockinfo
StockIno
p337
(dp338
g3
F256250000.0
sg4
V25.00
p339
sg6
F56420000.0
sg7
F148130000.0
sg8
F0.1816731655441333
sg9
F0.10501949663239986
sg10
S'SGZA'
p340
sg12
F0.06230000000000001
sba(ishared.common.stockinfo
StockIno
p341
(dp342
g3
F3330000000.0
sg4
V27.01
p343
sg6
F639090000.0
sg7
F1840000000.0
sg8
F0.19291128203050698
sg9
F0.10659362130214199
sg10
S'SKM'
p344
sg12
F0.094
sba(ishared.common.stockinfo
StockIno
p345
(dp346
g3
F1270000000.0
sg4
V25.26
p347
sg6
F156650000.0
sg7
F1110000000.0
sg8
F0.32095191811733137
sg9
F0.28051703079546286
sg10
S'SWJ'
p348
sg12
F0.0592
sba(ishared.common.stockinfo
StockIno
p349
(dp350
g3
F610100000.0
sg4
V25.00
p351
sg6
F44030000.0
sg7
F229100000.0
sg8
F0.554258460140813
sg9
F0.2081308198955258
sg10
S'THGA'
p352
sg12
F0.052300000000000006
sba(ishared.common.stockinfo
StockIno
p353
(dp354
g3
F992530000.0
sg4
V54.17
p355
sg6
F128639999.99999999
sg7
F1270000000.0
sg8
F0.14243239451625023
sg9
F0.18225055266403814
sg10
S'TMK'
p356
sg12
F0.1383
sba(ishared.common.stockinfo
StockIno
p357
(dp358
g3
F4099999999.9999995
sg4
V105.85
p359
sg6
F331400000.0
sg7
F10080000000.0
sg8
F0.11688007733470092
sg9
F0.2873539462277525
sg10
S'TRV'
p360
sg12
F0.1343
sba(ishared.common.stockinfo
StockIno
p361
(dp362
g3
F433320000.0
sg4
V28.03
p363
sg6
F80360000.0
sg7
F283530000.0
sg8
F0.19237370470059187
sg9
F0.12587398803138286
sg10
S'TTWO'
p364
sg12
F0.20379999999999998
sba(ishared.common.stockinfo
StockIno
p365
(dp366
g3
F572000000.0
sg4
V40.22
p367
sg6
F64470000.0
sg7
F296380000.0
sg8
F0.22059531889020192
sg9
F0.11430077030188471
sg10
S'UFS'
p368
sg12
F0.0767
sba(ishared.common.stockinfo
StockIno
p369
(dp370
g3
F87370000.0
sg4
V21.95
p371
sg6
F20750000.0
sg7
F84310000.0
sg8
F0.19182698904959244
sg9
F0.18510854351346162
sg10
S'UIHC'
p372
sg12
F0.13820000000000002
sba(ishared.common.stockinfo
StockIno
p373
(dp374
g3
F107040000.0
sg4
V20.45
p375
sg6
F33430000.0
sg7
F108200000.0
sg8
F0.15657283364794664
sg9
F0.1582696244460746
sg10
S'UVE'
p376
sg12
F0.1974
sba(ishared.common.stockinfo
StockIno
p377
(dp378
g3
F3240000000.0
sg4
V42.38
p379
sg6
F246300000.0
sg7
F2940000000.0
sg8
F0.31039852296288034
sg9
F0.2816579189848359
sg10
S'VOYA'
p380
sg12
F0.133
sba(ishared.common.stockinfo
StockIno
p381
(dp382
g3
F9470000000.0
sg4
V34.17
p383
sg6
F2650000000.0
sg7
F50480000000.0
sg8
F0.10458252577291124
sg9
F0.5574789758201225
sg10
S'VOD'
p384
sg12
F1.167
sba(ishared.common.stockinfo
StockIno
p385
(dp386
g3
F192150000.0
sg4
V0.4888
p387
sg6
F307790000.0
sg7
F96920000.0
sg8
F1.2771875780503519
sg9
F0.6442103568287282
sg10
S'VTG'
p388
sg12
F0.0713
sba(ishared.common.stockinfo
StockIno
p389
(dp390
g3
F33590000000.000004
sg4
V26.18
p391
sg6
F4150000000.0000005
sg7
F22320000000.0
sg8
F0.309166382872974
sg9
F0.20543595313262214
sg10
S'VZA'
p392
sg12
F0.1354
sba(ishared.common.stockinfo
StockIno
p393
(dp394
g3
F33590000000.000004
sg4
V46.78
p395
sg6
F4150000000.0000005
sg7
F22320000000.0
sg8
F0.17302214415593112
sg9
F0.1149703559857214
sg10
S'VZ'
p396
sg12
F0.1354
sba(ishared.common.stockinfo
StockIno
p397
(dp398
g3
F67920000.0
sg4
V21.90
p399
sg6
F8420000.0
sg7
F20660000.0
sg8
F0.3683337129469951
sg9
F0.11204026074035511
sg10
S'WLFC'
p400
sg12
F0.0799
sba(ishared.common.stockinfo
StockIno
p401
(dp402
g3
F767890000.0
sg4
V51.26
p403
sg6
F126910000.0
sg7
F932010000.0
sg8
F0.11803874026874815
sg9
F0.1432669865708317
sg10
S'WRB'
p404
sg12
F0.0949
sba(ishared.common.stockinfo
StockIno
p405
(dp406
g3
F437610000.0
sg4
V33.00
p407
sg6
F84180000.0
sg7
F295120000.0
sg8
F0.15753040022462686
sg9
F0.10623699575944764
sg10
S'WSTC'
p408
sg12
F0.057999999999999996
sba(ishared.common.stockinfo
StockIno
p409
(dp410
g3
F257170000.00000003
sg4
V79.45
p411
sg6
F9010000.0
sg7
F109280000.0
sg8
F0.35925399999580915
sg9
F0.15265885258600156
sg10
S'WRLD'
p412
sg12
F0.1691
sba(ishared.common.stockinfo
StockIno
p413
(dp414
g3
F243370000.0
sg4
V24.84
p415
sg6
F56680000.0
sg7
F167660000.0
sg8
F0.1728564577587314
sg9
F0.11908252335057282
sg10
S'WTW'
p416
sg12
F0.095
sba(ishared.common.stockinfo
StockIno
p417
(dp418
g3
F19700000.0
sg4
V2.21
p419
sg6
F56930000.0
sg7
F17460000.0
sg8
F0.15657873088567129
sg9
F0.13877485488648839
sg10
S'XNY'
p420
sg12
F0.07400000000000001
sba(ishared.common.stockinfo
StockIno
p421
(dp422
g3
F2170000000.0
sg4
V13.86
p423
sg6
F1140000000.0
sg7
F2060000000.0
sg8
F0.13733829523303206
sg9
F0.13037644616591987
sg10
S'XRX'
p424
sg12
F0.0529
sba(ishared.common.stockinfo
StockIno
p425
(dp426
g3
F136800000.0
sg4
V9.01
p427
sg6
F112110000.0
sg7
F104340000.0
sg8
F0.13543064718326528
sg9
F0.10329556818056945
sg10
S'ACCO'
p428
sg12
F0.0565
sba(ishared.common.stockinfo
StockIno
p429
(dp430
g3
F1680000000.0
sg4
V38.82
p431
sg6
F212320000.0
sg7
F1840000000.0
sg8
F0.20382753162529743
sg9
F0.2232396774943734
sg10
S'AER'
p432
sg12
F0.231
sba(ishared.common.stockinfo
StockIno
p433
(dp434
g3
F1050000000.0
sg4
V25.55
p435
sg6
F87870000.0
sg7
F1030000000.0
sg8
F0.4676896598493104
sg9
F0.45878128537599017
sg10
S'AFA'
p436
sg12
F0.0883
sba(ishared.common.stockinfo
StockIno
p437
(dp438
g3
F1050000000.0
sg4
V60.72
p439
sg6
F87870000.0
sg7
F1030000000.0
sg8
F0.19679629132328527
sg9
F0.19304779053617507
sg10
S'AFG'
p440
sg12
F0.0883
sba(ishared.common.stockinfo
StockIno
p441
(dp442
g3
F1050000000.0
sg4
V25.12
p443
sg6
F87870000.0
sg7
F1030000000.0
sg8
F0.4756954939948201
sg9
F0.46663462744253775
sg10
S'AFGE'
p444
sg12
F0.0883
sba(ishared.common.stockinfo
StockIno
p445
(dp446
g3
F1050000000.0
sg4
V26.55
p447
sg6
F87870000.0
sg7
F1030000000.0
sg8
F0.4500742300998072
sg9
F0.4415013876217156
sg10
S'AFW'
p448
sg12
F0.0883
sba(ishared.common.stockinfo
StockIno
p449
(dp450
g3
F7960000000.0
sg4
V24.56
p451
sg6
F450590000.0
sg7
F2520000000.0
sg8
F0.7192885650540121
sg9
F0.2277144703437325
sg10
S'AFSD'
p452
sg12
F0.1278
sba(ishared.common.stockinfo
StockIno
p453
(dp454
g3
F1050000000.0
sg4
V25.95
p455
sg6
F87870000.0
sg7
F1030000000.0
sg8
F0.4604805706801496
sg9
F0.45170951219100386
sg10
S'AFQ'
p456
sg12
F0.0883
sba(ishared.common.stockinfo
StockIno
p457
(dp458
g3
F3740000000.0
sg4
V70.25
p459
sg6
F419430000.0
sg7
F4640000000.0
sg8
F0.12693043931931683
sg9
F0.15747519744428615
sg10
S'ALL'
p460
sg12
F0.08070000000000001
sba(ishared.common.stockinfo
StockIno
p461
(dp462
g3
F818190000.0
sg4
V68.43
p463
sg6
F70260000.0
sg7
F1070000000.0000001
sg8
F0.170176458629955
sg9
F0.22255076538952062
sg10
S'AIZ'
p464
sg12
F0.052199999999999996
sba(ishared.common.stockinfo
StockIno
p465
(dp466
g3
F545880000.0
sg4
V60.13
p467
sg6
F78250000.0
sg7
F546900000.0
sg8
F0.11601700043941002
sg9
F0.11623378313972549
sg10
S'ALB'
p468
sg12
F0.11359999999999999
sba(ishared.common.stockinfo
StockIno
p469
(dp470
g3
F320520000.0
sg4
V50.53
p471
sg6
F34120000.0
sg7
F246100000.0
sg8
F0.18590745831582645
sg9
F0.14274249810160017
sg10
S'APAM'
p472
sg12
F0.0712
sba(ishared.common.stockinfo
StockIno
p473
(dp474
g3
F944080000.0
sg4
V51.09
p475
sg6
F102210000.0
sg7
F684020000.0
sg8
F0.1807921237385049
sg9
F0.13099041233752662
sg10
S'AXS'
p476
sg12
F0.1865
sba(ishared.common.stockinfo
StockIno
p477
(dp478
g3
F706000000.0
sg4
V22.87
p479
sg6
F244360000.0
sg7
F1580000000.0
sg8
F0.12633055962004347
sg9
F0.28272278215250524
sg10
S'BPY'
p480
sg12
F0.1292
sba(ishared.common.stockinfo
StockIno
p481
(dp482
g3
F458050000.0
sg4
V19.42
p483
sg6
F170260000.0
sg7
F390440000.0
sg8
F0.1385322962167391
sg9
F0.11808437885572232
sg10
S'CBL'
p484
sg12
F0.141
sba(ishared.common.stockinfo
StockIno
p485
(dp486
g3
F139800000.0
sg4
V3.19
p487
sg6
F209240000.0
sg7
F329380000.0
sg8
F0.209445858395423
sg9
F0.4934712220192019
sg10
S'CBB'
p488
sg12
F0.051500000000000004
sba(ishared.common.stockinfo
StockIno
p489
(dp490
g3
F315000000.0
sg4
V43.86
p491
sg6
F64050000.0
sg7
F331380000.0
sg8
F0.11213025049897962
sg9
F0.11796102352492654
sg10
S'CBT'
p492
sg12
F0.0546
sba(ishared.common.stockinfo
StockIno
p493
(dp494
g3
F14780000000.0
sg4
V25.34
p495
sg6
F2580000000.0
sg7
F12070000000.0
sg8
F0.22607269812717584
sg9
F0.18462093818640138
sg10
S'CCV'
p496
sg12
F0.1231
sba(ishared.common.stockinfo
StockIno
p497
(dp498
g3
F421450000.0
sg4
V8.65
p499
sg6
F99060000.0
sg7
F238470000.0
sg8
F0.4918488123622164
sg9
F0.2783039181018335
sg10
S'CEL'
p500
sg12
F0.0862
sba(ishared.common.stockinfo
StockIno
p501
(dp502
g3
F97040000.0
sg4
V39.05
p503
sg6
F21310000.0
sg7
F86370000.0
sg8
F0.11661282056058032
sg9
F0.10379069777223127
sg10
S'COR'
p504
sg12
F0.08130000000000001
sba(ishared.common.stockinfo
StockIno
p505
(dp506
g3
F587910000.0
sg4
V22.62
p507
sg6
F28890000.0
sg7
F122950000.0
sg8
F0.8996440353191882
sg9
F0.18814314119932338
sg10
S'CSH'
p508
sg12
F0.0547
sba(ishared.common.stockinfo
StockIno
p509
(dp510
g3
F34870000.0
sg4
V27.64
p511
sg6
F9320000.0
sg7
F26050000.0
sg8
F0.13536238455184063
sg9
F0.10112389210138942
sg10
S'CSS'
p512
sg12
F0.0571
sba(ishared.common.stockinfo
StockIno
p513
(dp514
g3
F184610000.0
sg4
V5.47
p515
sg6
F109670000.0
sg7
F176110000.0
sg8
F0.30773723863963504
sg9
F0.2935680900104335
sg10
S'DAC'
p516
sg12
F0.07740000000000001
sba(ishared.common.stockinfo
StockIno
p517
(dp518
g3
F56220000.0
sg4
V10.01
p519
sg6
F53150000.0
sg7
F54360000.0
sg8
F0.10567043492725524
sg9
F0.10217440132774093
sg10
S'DHX'
p520
sg12
F0.0602
sba(ishared.common.stockinfo
StockIno
p521
(dp522
g3
F176080000.0
sg4
V23.51
p523
sg6
F31490000.0
sg7
F151110000.0
sg8
F0.23783991434089044
sg9
F0.2041117074968875
sg10
S'EIG'
p524
sg12
F0.1109
sba(ishared.common.stockinfo
StockIno
p525
(dp526
g3
F200430000.0
sg4
V58.03
p527
sg6
F24650000.0
sg7
F145140000.0
sg8
F0.1401177749915323
sg9
F0.10146531887577209
sg10
S'FFG'
p528
sg12
F0.1574
sba(ishared.common.stockinfo
StockIno
p529
(dp530
g3
F180040000.0
sg4
V8.02
p531
sg6
F208540000.0
sg7
F200040000.0
sg8
F0.10764782682212662
sg9
F0.11960603908852593
sg10
S'FIG'
p532
sg12
F0.1243
sba(ishared.common.stockinfo
StockIno
p533
(dp534
g3
F96490000.0
sg4
V1.54
p535
sg6
F202630000.0
sg7
F120700000.0
sg8
F0.30921306892288486
sg9
F0.38679673975533424
sg10
S'GFA'
p536
sg12
F0.3946
sba(ishared.common.stockinfo
StockIno
p537
(dp538
g3
F29270000.0
sg4
V3.38
p539
sg6
F54180000.0
sg7
F24550000.0
sg8
F0.15983320992265534
sg9
F0.13405894443461527
sg10
S'GORO'
p540
sg12
F0.0776
sba(ishared.common.stockinfo
StockIno
p541
(dp542
g3
F72730000.0
sg4
V43.24
p543
sg6
F10990000.0
sg7
F71130000.0
sg8
F0.15304889904959432
sg9
F0.1496819495311102
sg10
S'HCI'
p544
sg12
F0.23879999999999998
sba(ishared.common.stockinfo
StockIno
p545
(dp546
g3
F72730000.0
sg4
V26.68
p547
sg6
F10990000.0
sg7
F71130000.0
sg8
F0.2480447674252046
sg9
F0.2425879871711096
sg10
S'HCJ'
p548
sg12
F0.23879999999999998
sba(ishared.common.stockinfo
StockIno
p549
(dp550
g3
F52570000.0
sg4
V4.50
p551
sg6
F54950000.0
sg7
F50000000.0
sg8
F0.21259731068648266
sg9
F0.2022040238600748
sg10
S'GSL'
p552
sg12
F0.1028
sba(ishared.common.stockinfo
StockIno
p553
(dp554
g3
F4960000000.0
sg4
V73.82
p555
sg6
F300700000.0
sg7
F2720000000.0
sg8
F0.22344683501523627
sg9
F0.12253536113738765
sg10
S'HES'
p556
sg12
F0.19870000000000002
sba(ishared.common.stockinfo
StockIno
p557
(dp558
g3
F1030000000.0
sg4
V17.36
p559
sg6
F106500000.0
sg7
F350080000.0
sg8
F0.5571060773241601
sg9
F0.18935116072780772
sg10
g200
sg12
F0.1158
sba(ishared.common.stockinfo
StockIno
p560
(dp561
g3
F156050000.0
sg4
V2.75
p562
sg6
F164200000.0
sg7
F72070000.0
sg8
F0.3455874211050825
sg9
F0.15960580223674012
sg10
S'IO'
p563
sg12
F0.1225
sba(ishared.common.stockinfo
StockIno
p564
(dp565
g3
F325520000.0
sg4
V18.39
p566
sg6
F92300000.0
sg7
F315130000.0
sg8
F0.19177599583362054
sg9
F0.185654858586412
sg10
S'JOE'
p567
sg12
F0.5807
sba(ishared.common.stockinfo
StockIno
p568
(dp569
g3
F441600000.0
sg4
V41.27
p570
sg6
F61800000.0
sg7
F525440000.00000006
sg8
F0.1731434714795533
sg9
F0.20601563780393226
sg10
S'LXK'
p571
sg12
F0.0538
sba(ishared.common.stockinfo
StockIno
p572
(dp573
g3
F5120000000.0
sg4
V7.18
p574
sg6
F994500000.0
sg7
F1290000000.0
sg8
F0.7170356179040434
sg9
F0.18065936466722968
sg10
S'MBT'
p575
sg12
F0.17129999999999998
sba(ishared.common.stockinfo
StockIno
p576
(dp577
g3
F446000000.0
sg4
V9.54
p578
sg6
F193200000.0
sg7
F1130000000.0
sg8
F0.24197993845245694
sg9
F0.6130881848683326
sg10
S'MBI'
p579
sg12
F0.4448
sba(ishared.common.stockinfo
StockIno
p580
(dp581
g3
F17100000000.000002
sg4
V54.09
p582
sg6
F1140000000.0
sg7
F6690000000.0
sg8
F0.27731558513588467
sg9
F0.10849364120228468
sg10
S'MET'
p583
sg12
F0.0784
sba(ishared.common.stockinfo
StockIno
p584
(dp585
g3
F181390000.0
sg4
V3.32
p586
sg6
F87100000.0
sg7
F82350000.0
sg8
F0.6272737332798473
sg9
F0.2847786092706071
sg10
S'MNI'
p587
sg12
F0.069
sba(ishared.common.stockinfo
StockIno
p588
(dp589
g3
F164200000.0
sg4
V35.82
p590
sg6
F43360000.0
sg7
F206060000.0
sg8
F0.10572027830831073
sg9
F0.13267186691967423
sg10
S'MRH'
p591
sg12
F0.35850000000000004
sba(ishared.common.stockinfo
StockIno
p592
(dp593
g3
F527000000.0
sg4
V29.14
p594
sg6
F168400000.0
sg7
F605880000.0
sg8
F0.10739374336685703
sg9
F0.12346816172886402
sg10
S'NCR'
p595
sg12
F0.05480000000000001
sba(ishared.common.stockinfo
StockIno
p596
(dp597
g3
F3400000000.0
sg4
V65.53
p598
sg6
F430570000.0
sg7
F4190000000.0000005
sg8
F0.12050220171522054
sg9
F0.1485012427019924
sg10
S'NOV'
p599
sg12
F0.1039
sba(ishared.common.stockinfo
StockIno
p600
(dp601
g3
F20140000.0
sg4
V12.16
p602
sg6
F9190000.0
sg7
F11750000.0
sg8
F0.18022306855277476
sg9
F0.10514503751216998
sg10
S'NRT'
p603
sg12
F0.9557
sba(ishared.common.stockinfo
StockIno
p604
(dp605
g3
F298830000.0
sg4
V27.80
p606
sg6
F54880000.0
sg7
F270930000.0
sg8
F0.19586881515196006
sg9
F0.17758169557648343
sg10
S'NSR'
p607
sg12
F0.1631
sba(ishared.common.stockinfo
StockIno
p608
(dp609
g3
F32229999.999999996
sg4
V4.21
p610
sg6
F47260000.0
sg7
F31130000.0
sg8
F0.16198861506016646
sg9
F0.15645999338575806
sg10
S'ONE'
p611
sg12
F0.0779
sba(ishared.common.stockinfo
StockIno
p612
(dp613
g3
F1000000000.0
sg4
V11.68
p614
sg6
F172200000.0
sg7
F897990000.0
sg8
F0.4971918603726155
sg9
F0.44647331869600493
sg10
S'OZM'
p615
sg12
F0.1313
sba(ishared.common.stockinfo
StockIno
p616
(dp617
g3
F528700000.00000006
sg4
V24.37
p618
sg6
F200990000.0
sg7
F722990000.0
sg8
F0.10793923382498324
sg9
F0.14760542209783362
sg10
S'PBI'
p619
sg12
F0.092
sba(ishared.common.stockinfo
StockIno
p620
(dp621
g3
F52410000.0
sg4
V9.46
p622
sg6
F13200000.0
sg7
F42460000.0
sg8
F0.4197097828176052
sg9
F0.34002818886539815
sg10
S'PZN'
p623
sg12
F0.0702
sba(ishared.common.stockinfo
StockIno
p624
(dp625
g3
F136070000.0
sg4
V61.97
p626
sg6
F8000000.0
sg7
F97550000.0
sg8
F0.2744674842665806
sg9
F0.19676859770856867
sg10
S'REX'
p627
sg12
F0.1403
sba(ishared.common.stockinfo
StockIno
p628
(dp629
g3
F826770000.0
sg4
V114.13
p630
sg6
F48970000.0
sg7
F15480000000.0
sg8
F0.14792949962426727
sg9
F2.7697529593280565
sg10
S'PRE'
p631
sg12
F0.1627
sba(ishared.common.stockinfo
StockIno
p632
(dp633
g3
F833770000.0
sg4
V97.22
p634
sg6
F38530000.0
sg7
F458610000.0
sg8
F0.22258281924498197
sg9
F0.12243029460635567
sg10
S'RNR'
p635
sg12
F0.4712
sba(ishared.common.stockinfo
StockIno
p636
(dp637
g3
F491670000.0
sg4
V27.94
p638
sg6
F126500000.0
sg7
F364450000.0
sg8
F0.1391094977662467
sg9
F0.10311480558282711
sg10
S'RYN'
p639
sg12
F0.0976
sba(ishared.common.stockinfo
StockIno
p640
(dp641
g3
F608200000.0
sg4
V7.57
p642
sg6
F224580000.0
sg7
F384890000.0
sg8
F0.3577498487415758
sg9
F0.2263964802402912
sg10
S'SBGL'
p643
sg12
F0.1268
sba(ishared.common.stockinfo
StockIno
p644
(dp645
g3
F256250000.0
sg4
V25.00
p646
sg6
F56420000.0
sg7
F148130000.0
sg8
F0.1816731655441333
sg9
F0.10501949663239986
sg10
S'SGZA'
p647
sg12
F0.06230000000000001
sba(ishared.common.stockinfo
StockIno
p648
(dp649
g3
F3330000000.0
sg4
V27.01
p650
sg6
F639090000.0
sg7
F1840000000.0
sg8
F0.19291128203050698
sg9
F0.10659362130214199
sg10
S'SKM'
p651
sg12
F0.094
sba(ishared.common.stockinfo
StockIno
p652
(dp653
g3
F1270000000.0
sg4
V25.26
p654
sg6
F156650000.0
sg7
F1110000000.0
sg8
F0.32095191811733137
sg9
F0.28051703079546286
sg10
S'SWJ'
p655
sg12
F0.0592
sba(ishared.common.stockinfo
StockIno
p656
(dp657
g3
F610100000.0
sg4
V25.00
p658
sg6
F44030000.0
sg7
F229100000.0
sg8
F0.554258460140813
sg9
F0.2081308198955258
sg10
S'THGA'
p659
sg12
F0.052300000000000006
sba(ishared.common.stockinfo
StockIno
p660
(dp661
g3
F992530000.0
sg4
V54.17
p662
sg6
F128639999.99999999
sg7
F1270000000.0
sg8
F0.14243239451625023
sg9
F0.18225055266403814
sg10
S'TMK'
p663
sg12
F0.1383
sba(ishared.common.stockinfo
StockIno
p664
(dp665
g3
F4099999999.9999995
sg4
V105.85
p666
sg6
F331400000.0
sg7
F10080000000.0
sg8
F0.11688007733470092
sg9
F0.2873539462277525
sg10
S'TRV'
p667
sg12
F0.1343
sba(ishared.common.stockinfo
StockIno
p668
(dp669
g3
F572000000.0
sg4
V40.22
p670
sg6
F64470000.0
sg7
F296380000.0
sg8
F0.22059531889020192
sg9
F0.11430077030188471
sg10
S'UFS'
p671
sg12
F0.0767
sba(ishared.common.stockinfo
StockIno
p672
(dp673
g3
F107040000.0
sg4
V20.45
p674
sg6
F33430000.0
sg7
F108200000.0
sg8
F0.15657283364794664
sg9
F0.1582696244460746
sg10
S'UVE'
p675
sg12
F0.1974
sba(ishared.common.stockinfo
StockIno
p676
(dp677
g3
F3240000000.0
sg4
V42.38
p678
sg6
F246300000.0
sg7
F2940000000.0
sg8
F0.31039852296288034
sg9
F0.2816579189848359
sg10
S'VOYA'
p679
sg12
F0.133
sba(ishared.common.stockinfo
StockIno
p680
(dp681
g3
F192150000.0
sg4
V0.4888
p682
sg6
F307790000.0
sg7
F96920000.0
sg8
F1.2771875780503519
sg9
F0.6442103568287282
sg10
S'VTG'
p683
sg12
F0.0713
sba(ishared.common.stockinfo
StockIno
p684
(dp685
g3
F33590000000.000004
sg4
V46.78
p686
sg6
F4150000000.0000005
sg7
F22320000000.0
sg8
F0.17302214415593112
sg9
F0.1149703559857214
sg10
S'VZ'
p687
sg12
F0.1354
sba(ishared.common.stockinfo
StockIno
p688
(dp689
g3
F33590000000.000004
sg4
V26.18
p690
sg6
F4150000000.0000005
sg7
F22320000000.0
sg8
F0.309166382872974
sg9
F0.20543595313262214
sg10
S'VZA'
p691
sg12
F0.1354
sba(ishared.common.stockinfo
StockIno
p692
(dp693
g3
F767890000.0
sg4
V51.26
p694
sg6
F126910000.0
sg7
F932010000.0
sg8
F0.11803874026874815
sg9
F0.1432669865708317
sg10
S'WRB'
p695
sg12
F0.0949
sba(ishared.common.stockinfo
StockIno
p696
(dp697
g3
F243370000.0
sg4
V24.84
p698
sg6
F56680000.0
sg7
F167660000.0
sg8
F0.1728564577587314
sg9
F0.11908252335057282
sg10
S'WTW'
p699
sg12
F0.095
sba(ishared.common.stockinfo
StockIno
p700
(dp701
g3
F19700000.0
sg4
V2.21
p702
sg6
F56930000.0
sg7
F17460000.0
sg8
F0.15657873088567129
sg9
F0.13877485488648839
sg10
S'XNY'
p703
sg12
F0.07400000000000001
sba(ishared.common.stockinfo
StockIno
p704
(dp705
g3
F2170000000.0
sg4
V13.86
p706
sg6
F1140000000.0
sg7
F2060000000.0
sg8
F0.13733829523303206
sg9
F0.13037644616591987
sg10
S'XRX'
p707
sg12
F0.0529
sba.