(lp0
(ishared.common.stockinfo
StockIno
p1
(dp2
S'freecashflow'
p3
F6530000000.0
sS'price'
p4
V26.91
p5
sS'shares'
p6
F409580000.0
sS'leveredcashflow'
p7
F4540000000.0
sS'FCFratio'
p8
F0.5924623295121599
sS'LCFratio'
p9
F0.4119110223560806
sS'book_value'
p10
F54.9
sS'symbol'
p11
S'AFSD'
p12
sS'profit_margin'
p13
F0.12029999999999999
sba(ishared.common.stockinfo
StockIno
p14
(dp15
g3
F919510000.0
sg4
V17.92
p16
sg6
F45120000.0
sg7
F291440000.0
sg8
F1.1372327563006583
sg9
F0.3604475367274569
sg10
F39.8
sg11
S'AMBC'
p17
sg13
F0.1241
sba(ishared.common.stockinfo
StockIno
p18
(dp19
g3
F636100000.0
sg4
V8.19
p20
sg6
F64800000.0
sg7
F293540000.0
sg8
F1.1985785133933284
sg9
F0.5531060160689791
sg10
F49.7
sg11
S'ATW'
p21
sg13
F0.35990000000000005
sba(ishared.common.stockinfo
StockIno
p22
(dp23
g3
F126220000.0
sg4
V10.65
p24
sg6
F31810000.0
sg7
F82220000.0
sg8
F0.3725760198833154
sg9
F0.24269688127718422
sg10
F20.1
sg11
S'BZH'
p25
sg13
F0.1985
sba(ishared.common.stockinfo
StockIno
p26
(dp27
g3
F244220000.0
sg4
V8.78
p28
sg6
F75700000.0
sg7
F214200000.0
sg8
F0.367443721921143
sg9
F0.32227682104458616
sg10
F12.9
sg11
S'CMRE'
p29
sg13
F0.2987
sba(ishared.common.stockinfo
StockIno
p30
(dp31
g3
F280850000.0
sg4
V3.5099
p32
sg6
F109800000.0
sg7
F239190000.0
sg8
F0.7287479479718855
sg9
F0.6206488220594456
sg10
F8.5
sg11
S'DAC'
p33
sg13
F0.2443
sba(ishared.common.stockinfo
StockIno
p34
(dp35
g3
F1270000000.0
sg4
V27.66
p36
sg6
F6510000.0
sg7
F2910000000.0
sg8
F7.052945965548303
sg9
F16.16068721239808
sg10
F8.8
sg11
S'DISCB'
p37
sg13
F0.18059999999999998
sba(ishared.common.stockinfo
StockIno
p38
(dp39
g3
F1270000000.0
sg4
V25.00
p40
sg6
F243590000.0
sg7
F2910000000.0
sg8
F0.208547148897738
sg9
F0.4778521285767068
sg10
F8.8
sg11
S'DISCK'
p41
sg13
F0.18059999999999998
sba(ishared.common.stockinfo
StockIno
p42
(dp43
g3
F1270000000.0
sg4
V25.84
p44
sg6
F150480000.0
sg7
F2910000000.0
sg8
F0.3266122196381281
sg9
F0.7483791804306714
sg10
F8.8
sg11
S'DISCA'
p45
sg13
F0.18059999999999998
sba(ishared.common.stockinfo
StockIno
p46
(dp47
g3
F582800000.0
sg4
V10.12
p48
sg6
F273660000.0
sg7
F606830000.0
sg8
F0.21043971645956336
sg9
F0.21911656338221833
sg10
F17.3
sg11
S'ELP'
p49
sg13
F0.12060000000000001
sba(ishared.common.stockinfo
StockIno
p50
(dp51
g3
F218160000.0
sg4
V20.9788
p52
sg6
F36630000.0
sg7
F295930000.0
sg8
F0.28389488225131826
sg9
F0.38509815046127893
sg10
F0.0
sg11
S'ESBA'
p53
sg13
F0.13119999999999998
sba(ishared.common.stockinfo
StockIno
p54
(dp55
g3
F218160000.0
sg4
V20.52
p56
sg6
F4940000.0
sg7
F295930000.0
sg8
F2.1521414873215425
sg9
F2.9193400730796855
sg10
F4.9
sg11
S'FISK'
p57
sg13
F0.13119999999999998
sba(ishared.common.stockinfo
StockIno
p58
(dp59
g3
F169960000.0
sg4
V12.07
p60
sg6
F33350000.0
sg7
F1810000000.0
sg8
F0.4222246788784564
sg9
F4.496508994881184
sg10
F18.9
sg11
S'FLY'
p61
sg13
F0.1617
sba(ishared.common.stockinfo
StockIno
p62
(dp63
g3
F152770000.0
sg4
V14.23
p64
sg6
F26840000.0
sg7
F225430000.0
sg8
F0.3999914121108089
sg9
F0.5902341037647421
sg10
F-0.8
sg11
S'FRP'
p65
sg13
F0.1696
sba(ishared.common.stockinfo
StockIno
p66
(dp67
g3
F232020000.0
sg4
V18.875
p68
sg6
F45170000.0
sg7
F274360000.0
sg8
F0.272137487959394
sg9
F0.32179829840763446
sg10
F8.1
sg11
S'GMLP'
p69
sg13
F0.3387
sba(ishared.common.stockinfo
StockIno
p70
(dp71
g3
F35990000.0
sg4
V13.09
p72
sg6
F12290000.0
sg7
F50260000.0
sg8
F0.2237125340557112
sg9
F0.3124143362500707
sg10
F6.0
sg11
S'HMTV'
p73
sg13
F0.1165
sba(ishared.common.stockinfo
StockIno
p74
(dp75
g3
F173030000.0
sg4
V13.68
p76
sg6
F30430000.0
sg7
F169750000.0
sg8
F0.41565533397520527
sg9
F0.40777606740039934
sg10
F12.7
sg11
S'HRTG'
p77
sg13
F0.1506
sba(ishared.common.stockinfo
StockIno
p78
(dp79
g3
F97520000.0
sg4
V18.29
p80
sg6
F18630000.0
sg7
F84780000.0
sg8
F0.28619835435946245
sg9
F0.24880943891094365
sg10
F18.4
sg11
S'KNOP'
p81
sg13
F0.2912
sba(ishared.common.stockinfo
StockIno
p82
(dp83
g3
F1080000000.0
sg4
V26.50
p84
sg6
F53870000.0
sg7
F592550000.0
sg8
F0.7565382769840742
sg9
F0.4150803296545492
sg10
F54.1
sg11
S'MGR'
p85
sg13
F0.2047
sba(ishared.common.stockinfo
StockIno
p86
(dp87
g3
F41530000.0
sg4
V11.4699
p88
sg6
F9340000.0
sg7
F40570000.0
sg8
F0.38766395604336923
sg9
F0.3787027858579218
sg10
F13.3
sg11
S'NAP'
p89
sg13
F0.30210000000000004
sba(ishared.common.stockinfo
StockIno
p90
(dp91
g3
F1860000000.0
sg4
V5.88
p92
sg6
F243220000.0
sg7
F1180000000.0
sg8
F1.3005777921727033
sg9
F0.8250977391203171
sg10
F29.1
sg11
S'NE'
p93
sg13
F0.1893
sba(ishared.common.stockinfo
StockIno
p94
(dp95
g3
F314550000.0
sg4
V23.78
p96
sg6
F54510000.0
sg7
F323590000.0
sg8
F0.24266193547252307
sg9
F0.24963591066461213
sg10
F14.7
sg11
S'NSR'
p97
sg13
F0.13640000000000002
sba(ishared.common.stockinfo
StockIno
p98
(dp99
g3
F373510000.0
sg4
V194.69
p100
sg6
F3440000.0
sg7
F183220000.0
sg8
F0.5576993598648776
sg9
F0.27357146184691944
sg10
F467.6
sg11
S'NWLI'
p101
sg13
F0.1522
sba(ishared.common.stockinfo
StockIno
p102
(dp103
g3
F936640000.0
sg4
V13.01
p104
sg6
F125420000.0
sg7
F618310000.0
sg8
F0.5740220928395426
sg9
F0.37893278124318586
sg10
F40.8
sg11
S'RDC'
p105
sg13
F0.1023
sba(ishared.common.stockinfo
StockIno
p106
(dp107
g3
F901700000.0
sg4
V3.775
p108
sg6
F75280000.0
sg7
F834960000.0
sg8
F3.1729666199829687
sg9
F2.9381171221259614
sg10
F11.1
sg11
S'SDLP'
p109
sg13
F0.1286
sba(ishared.common.stockinfo
StockIno
p110
(dp111
g3
F377600000.0
sg4
V31.81
p112
sg6
F9860000.0
sg7
F1010000000.0
sg8
F1.20390273639185
sg9
F3.2201847557091323
sg10
F2.4
sg11
S'STRZB'
p113
sg13
F0.1257
sba(ishared.common.stockinfo
StockIno
p114
(dp115
g3
F43490000.0
sg4
V12.13
p116
sg6
F14180000.0
sg7
F39700000.0
sg8
F0.25284383913341246
sg9
F0.2308093909771551
sg10
F1.9
sg11
S'USDP'
p117
sg13
F0.20140000000000002
sba(ishared.common.stockinfo
StockIno
p118
(dp119
g3
F54660000.0
sg4
V19.7683
p120
sg6
F8250000.0
sg7
F43760000.0
sg8
F0.33515550378406567
sg9
F0.26832061554318903
sg10
F9.5
sg11
S'UBP'
p121
sg13
F0.4435
sba(ishared.common.stockinfo
StockIno
p122
(dp123
g3
F1630000000.0
sg4
V46.51
p124
sg6
F49430000.0
sg7
F5680000000.0
sg8
F0.709007214605131
sg9
F2.4706509073356715
sg10
F10.3
sg11
S'VIA'
p125
sg13
F0.1585
sba(ishared.common.stockinfo
StockIno
p126
(dp127
g3
F2200000000.0
sg4
V75.23
p128
sg6
F124410000.0
sg7
F2009999999.9999998
sg8
F0.2350586994460724
sg9
F0.21475817540300252
sg10
F20.2
sg11
S'VMW'
p129
sg13
F0.1547
sba(ishared.common.stockinfo
StockIno
p130
(dp131
g3
F218130000.0
sg4
V46.51
p132
sg6
F8720000.0
sg7
F128759999.99999999
sg8
F0.5378393519002523
sg9
F0.3174812953315751
sg10
F46.3
sg11
S'WRLD'
p133
sg13
F0.1469
sba.